
gcd.elf:     file format elf32-littleriscv


Disassembly of section .text:

00000000 <_start>:
   0:	00000013          	nop
   4:	00000013          	nop
   8:	80002117          	auipc	sp,0x80002
   c:	ff810113          	addi	sp,sp,-8 # 80002000 <_stack_top>
  10:	80000517          	auipc	a0,0x80000
  14:	ff050513          	addi	a0,a0,-16 # 80000000 <_ebss>
  18:	80000597          	auipc	a1,0x80000
  1c:	fe858593          	addi	a1,a1,-24 # 80000000 <_ebss>

00000020 <_init_bss>:
  20:	00b57863          	bgeu	a0,a1,30 <_init_reg>
  24:	00052023          	sw	zero,0(a0)
  28:	00450513          	addi	a0,a0,4
  2c:	ff5ff06f          	j	20 <_init_bss>

00000030 <_init_reg>:
  30:	00000093          	li	ra,0
  34:	00000193          	li	gp,0
  38:	00000213          	li	tp,0
  3c:	00000293          	li	t0,0
  40:	00000313          	li	t1,0
  44:	00000393          	li	t2,0
  48:	00000413          	li	s0,0
  4c:	00000493          	li	s1,0
  50:	00000513          	li	a0,0
  54:	00000593          	li	a1,0
  58:	00000613          	li	a2,0
  5c:	00000693          	li	a3,0
  60:	00000713          	li	a4,0
  64:	00000793          	li	a5,0
  68:	00000813          	li	a6,0
  6c:	00000893          	li	a7,0
  70:	00000913          	li	s2,0
  74:	00000993          	li	s3,0
  78:	00000a13          	li	s4,0
  7c:	00000a93          	li	s5,0
  80:	00000b13          	li	s6,0
  84:	00000b93          	li	s7,0
  88:	00000c13          	li	s8,0
  8c:	00000c93          	li	s9,0
  90:	00000d13          	li	s10,0
  94:	00000d93          	li	s11,0
  98:	00000e13          	li	t3,0
  9c:	00000e93          	li	t4,0
  a0:	00000f13          	li	t5,0
  a4:	00000f93          	li	t6,0

000000a8 <_call_main>:
  a8:	208000ef          	jal	2b0 <main>
  ac:	fff00f93          	li	t6,-1
  b0:	eee00013          	li	zero,-274
  b4:	0000006f          	j	b4 <_call_main+0xc>

000000b8 <puti>:
  b8:	100007b7          	lui	a5,0x10000
  bc:	00a7a023          	sw	a0,0(a5) # 10000000 <main+0xffffd50>
  c0:	00008067          	ret

000000c4 <memcpy>:
  c4:	00060e63          	beqz	a2,e0 <memcpy+0x1c>
  c8:	fff60613          	addi	a2,a2,-1
  cc:	00c587b3          	add	a5,a1,a2
  d0:	0007c703          	lbu	a4,0(a5)
  d4:	00c507b3          	add	a5,a0,a2
  d8:	00e78023          	sb	a4,0(a5)
  dc:	fe0616e3          	bnez	a2,c8 <memcpy+0x4>
  e0:	00008067          	ret

000000e4 <memset>:
  e4:	fff60813          	addi	a6,a2,-1
  e8:	0cc05863          	blez	a2,1b8 <memset+0xd4>
  ec:	40a00733          	neg	a4,a0
  f0:	00500893          	li	a7,5
  f4:	0ff5f693          	zext.b	a3,a1
  f8:	00377793          	andi	a5,a4,3
  fc:	0d08f063          	bgeu	a7,a6,1bc <memset+0xd8>
 100:	00050893          	mv	a7,a0
 104:	02078c63          	beqz	a5,13c <memset+0x58>
 108:	00d50023          	sb	a3,0(a0)
 10c:	00277713          	andi	a4,a4,2
 110:	00150893          	addi	a7,a0,1
 114:	ffe60813          	addi	a6,a2,-2
 118:	02070263          	beqz	a4,13c <memset+0x58>
 11c:	00d500a3          	sb	a3,1(a0)
 120:	00300713          	li	a4,3
 124:	00250893          	addi	a7,a0,2
 128:	ffd60813          	addi	a6,a2,-3
 12c:	00e79863          	bne	a5,a4,13c <memset+0x58>
 130:	00d50123          	sb	a3,2(a0)
 134:	00350893          	addi	a7,a0,3
 138:	ffc60813          	addi	a6,a2,-4
 13c:	00869713          	slli	a4,a3,0x8
 140:	40f60633          	sub	a2,a2,a5
 144:	01069593          	slli	a1,a3,0x10
 148:	00e6e733          	or	a4,a3,a4
 14c:	00b76733          	or	a4,a4,a1
 150:	00f507b3          	add	a5,a0,a5
 154:	01869593          	slli	a1,a3,0x18
 158:	ffc67313          	andi	t1,a2,-4
 15c:	00b76733          	or	a4,a4,a1
 160:	006785b3          	add	a1,a5,t1
 164:	00e7a023          	sw	a4,0(a5)
 168:	00478793          	addi	a5,a5,4
 16c:	feb79ce3          	bne	a5,a1,164 <memset+0x80>
 170:	04660463          	beq	a2,t1,1b8 <memset+0xd4>
 174:	40680833          	sub	a6,a6,t1
 178:	006887b3          	add	a5,a7,t1
 17c:	00d78023          	sb	a3,0(a5)
 180:	03005c63          	blez	a6,1b8 <memset+0xd4>
 184:	00d780a3          	sb	a3,1(a5)
 188:	00100713          	li	a4,1
 18c:	02e80663          	beq	a6,a4,1b8 <memset+0xd4>
 190:	00d78123          	sb	a3,2(a5)
 194:	00200713          	li	a4,2
 198:	02e80063          	beq	a6,a4,1b8 <memset+0xd4>
 19c:	00d781a3          	sb	a3,3(a5)
 1a0:	00300713          	li	a4,3
 1a4:	00e80a63          	beq	a6,a4,1b8 <memset+0xd4>
 1a8:	00d78223          	sb	a3,4(a5)
 1ac:	00400713          	li	a4,4
 1b0:	00e80463          	beq	a6,a4,1b8 <memset+0xd4>
 1b4:	00d782a3          	sb	a3,5(a5)
 1b8:	00008067          	ret
 1bc:	00050793          	mv	a5,a0
 1c0:	fbdff06f          	j	17c <memset+0x98>

000001c4 <mod>:
 1c4:	02058e63          	beqz	a1,200 <mod+0x3c>
 1c8:	02b05063          	blez	a1,1e8 <mod+0x24>
 1cc:	00b54663          	blt	a0,a1,1d8 <mod+0x14>
 1d0:	40b50533          	sub	a0,a0,a1
 1d4:	feb55ee3          	bge	a0,a1,1d0 <mod+0xc>
 1d8:	02055463          	bgez	a0,200 <mod+0x3c>
 1dc:	00b50533          	add	a0,a0,a1
 1e0:	fe054ee3          	bltz	a0,1dc <mod+0x18>
 1e4:	00008067          	ret
 1e8:	00a5c663          	blt	a1,a0,1f4 <mod+0x30>
 1ec:	40b50533          	sub	a0,a0,a1
 1f0:	fea5dee3          	bge	a1,a0,1ec <mod+0x28>
 1f4:	00a05663          	blez	a0,200 <mod+0x3c>
 1f8:	00b50533          	add	a0,a0,a1
 1fc:	fea04ee3          	bgtz	a0,1f8 <mod+0x34>
 200:	00008067          	ret

00000204 <gcd>:
 204:	02058863          	beqz	a1,234 <gcd+0x30>
 208:	02b05863          	blez	a1,238 <gcd+0x34>
 20c:	06b54663          	blt	a0,a1,278 <gcd+0x74>
 210:	00050793          	mv	a5,a0
 214:	00058513          	mv	a0,a1
 218:	00078593          	mv	a1,a5
 21c:	40a585b3          	sub	a1,a1,a0
 220:	fea5dee3          	bge	a1,a0,21c <gcd+0x18>
 224:	0205de63          	bgez	a1,260 <gcd+0x5c>
 228:	00a585b3          	add	a1,a1,a0
 22c:	fe05cee3          	bltz	a1,228 <gcd+0x24>
 230:	fc059ce3          	bnez	a1,208 <gcd+0x4>
 234:	00008067          	ret
 238:	06a5c463          	blt	a1,a0,2a0 <gcd+0x9c>
 23c:	00050793          	mv	a5,a0
 240:	00058513          	mv	a0,a1
 244:	00078593          	mv	a1,a5
 248:	40a585b3          	sub	a1,a1,a0
 24c:	feb55ee3          	bge	a0,a1,248 <gcd+0x44>
 250:	02b05c63          	blez	a1,288 <gcd+0x84>
 254:	00a585b3          	add	a1,a1,a0
 258:	feb04ee3          	bgtz	a1,254 <gcd+0x50>
 25c:	fa9ff06f          	j	204 <gcd>
 260:	fc058ae3          	beqz	a1,234 <gcd+0x30>
 264:	fab556e3          	bge	a0,a1,210 <gcd+0xc>
 268:	00050793          	mv	a5,a0
 26c:	00058513          	mv	a0,a1
 270:	00078593          	mv	a1,a5
 274:	fedff06f          	j	260 <gcd+0x5c>
 278:	00058793          	mv	a5,a1
 27c:	00050593          	mv	a1,a0
 280:	00078513          	mv	a0,a5
 284:	fa1ff06f          	j	224 <gcd+0x20>
 288:	fa0586e3          	beqz	a1,234 <gcd+0x30>
 28c:	faa5d8e3          	bge	a1,a0,23c <gcd+0x38>
 290:	00050793          	mv	a5,a0
 294:	00058513          	mv	a0,a1
 298:	00078593          	mv	a1,a5
 29c:	ff1ff06f          	j	28c <gcd+0x88>
 2a0:	00058793          	mv	a5,a1
 2a4:	00050593          	mv	a1,a0
 2a8:	00078513          	mv	a0,a5
 2ac:	fa5ff06f          	j	250 <gcd+0x4c>

000002b0 <main>:
 2b0:	00300713          	li	a4,3
 2b4:	06000793          	li	a5,96
 2b8:	40e787b3          	sub	a5,a5,a4
 2bc:	fee7dee3          	bge	a5,a4,2b8 <main+0x8>
 2c0:	00078c63          	beqz	a5,2d8 <main+0x28>
 2c4:	00078693          	mv	a3,a5
 2c8:	00f74e63          	blt	a4,a5,2e4 <main+0x34>
 2cc:	00070793          	mv	a5,a4
 2d0:	00068713          	mv	a4,a3
 2d4:	fe5ff06f          	j	2b8 <main+0x8>
 2d8:	100007b7          	lui	a5,0x10000
 2dc:	00e7a023          	sw	a4,0(a5) # 10000000 <main+0xffffd50>
 2e0:	00008067          	ret
 2e4:	00070793          	mv	a5,a4
 2e8:	00068713          	mv	a4,a3
 2ec:	fd9ff06f          	j	2c4 <main+0x14>
