
matrix.elf:     file format elf32-littleriscv


Disassembly of section .text:

00000000 <_start>:
   0:	00000013          	nop
   4:	00000013          	nop
   8:	80002117          	auipc	sp,0x80002
   c:	ff810113          	addi	sp,sp,-8 # 80002000 <_stack_top>
  10:	80000517          	auipc	a0,0x80000
  14:	00450513          	addi	a0,a0,4 # 80000014 <_ebss>
  18:	80000597          	auipc	a1,0x80000
  1c:	ffc58593          	addi	a1,a1,-4 # 80000014 <_ebss>

00000020 <_init_bss>:
  20:	00b57863          	bgeu	a0,a1,30 <_init_reg>
  24:	00052023          	sw	zero,0(a0)
  28:	00450513          	addi	a0,a0,4
  2c:	ff5ff06f          	j	20 <_init_bss>

00000030 <_init_reg>:
  30:	00000093          	li	ra,0
  34:	00000193          	li	gp,0
  38:	00000213          	li	tp,0
  3c:	00000293          	li	t0,0
  40:	00000313          	li	t1,0
  44:	00000393          	li	t2,0
  48:	00000413          	li	s0,0
  4c:	00000493          	li	s1,0
  50:	00000513          	li	a0,0
  54:	00000593          	li	a1,0
  58:	00000613          	li	a2,0
  5c:	00000693          	li	a3,0
  60:	00000713          	li	a4,0
  64:	00000793          	li	a5,0
  68:	00000813          	li	a6,0
  6c:	00000893          	li	a7,0
  70:	00000913          	li	s2,0
  74:	00000993          	li	s3,0
  78:	00000a13          	li	s4,0
  7c:	00000a93          	li	s5,0
  80:	00000b13          	li	s6,0
  84:	00000b93          	li	s7,0
  88:	00000c13          	li	s8,0
  8c:	00000c93          	li	s9,0
  90:	00000d13          	li	s10,0
  94:	00000d93          	li	s11,0
  98:	00000e13          	li	t3,0
  9c:	00000e93          	li	t4,0
  a0:	00000f13          	li	t5,0
  a4:	00000f93          	li	t6,0

000000a8 <_call_main>:
  a8:	05c000ef          	jal	104 <main>
  ac:	fff00f93          	li	t6,-1
  b0:	eee00013          	li	zero,-274
  b4:	0000006f          	j	b4 <_call_main+0xc>

000000b8 <putc>:
  b8:	100007b7          	lui	a5,0x10000
  bc:	00a78023          	sb	a0,0(a5) # 10000000 <main+0xffffefc>
  c0:	00008067          	ret

000000c4 <puts>:
  c4:	00054783          	lbu	a5,0(a0)
  c8:	00078c63          	beqz	a5,e0 <puts+0x1c>
  cc:	10000737          	lui	a4,0x10000
  d0:	00150513          	addi	a0,a0,1
  d4:	00f70023          	sb	a5,0(a4) # 10000000 <main+0xffffefc>
  d8:	00054783          	lbu	a5,0(a0)
  dc:	fe079ae3          	bnez	a5,d0 <puts+0xc>
  e0:	00008067          	ret

000000e4 <memcpy>:
  e4:	00060e63          	beqz	a2,100 <memcpy+0x1c>
  e8:	fff60613          	addi	a2,a2,-1
  ec:	00c587b3          	add	a5,a1,a2
  f0:	0007c703          	lbu	a4,0(a5)
  f4:	00c507b3          	add	a5,a0,a2
  f8:	00e78023          	sb	a4,0(a5)
  fc:	fe0616e3          	bnez	a2,e8 <memcpy+0x4>
 100:	00008067          	ret

00000104 <main>:
 104:	800007b7          	lui	a5,0x80000
 108:	00078793          	mv	a5,a5
 10c:	0007a803          	lw	a6,0(a5) # 80000000 <main+0x7ffffefc>
 110:	0087a583          	lw	a1,8(a5)
 114:	00c7a603          	lw	a2,12(a5)
 118:	0107d683          	lhu	a3,16(a5)
 11c:	0127c703          	lbu	a4,18(a5)
 120:	0047a503          	lw	a0,4(a5)
 124:	fe010113          	addi	sp,sp,-32
 128:	02400793          	li	a5,36
 12c:	01012623          	sw	a6,12(sp)
 130:	00b12a23          	sw	a1,20(sp)
 134:	00c12c23          	sw	a2,24(sp)
 138:	00d11e23          	sh	a3,28(sp)
 13c:	00e10f23          	sb	a4,30(sp)
 140:	00a12823          	sw	a0,16(sp)
 144:	00c10713          	addi	a4,sp,12
 148:	00078593          	mv	a1,a5
 14c:	04d00693          	li	a3,77
 150:	06d00813          	li	a6,109
 154:	00c00313          	li	t1,12
 158:	06000e13          	li	t3,96
 15c:	04000613          	li	a2,64
 160:	00a00f13          	li	t5,10
 164:	02b00893          	li	a7,43
 168:	02000e93          	li	t4,32
 16c:	04f6e463          	bltu	a3,a5,1b4 <main+0xb0>
 170:	06f66663          	bltu	a2,a5,1dc <main+0xd8>
 174:	06b78063          	beq	a5,a1,1d4 <main+0xd0>
 178:	01179463          	bne	a5,a7,180 <main+0x7c>
 17c:	01d70023          	sb	t4,0(a4)
 180:	00174783          	lbu	a5,1(a4)
 184:	00170713          	addi	a4,a4,1
 188:	fe0792e3          	bnez	a5,16c <main+0x68>
 18c:	00c14703          	lbu	a4,12(sp)
 190:	00c10793          	addi	a5,sp,12
 194:	100006b7          	lui	a3,0x10000
 198:	00070a63          	beqz	a4,1ac <main+0xa8>
 19c:	00178793          	addi	a5,a5,1
 1a0:	00e68023          	sb	a4,0(a3) # 10000000 <main+0xffffefc>
 1a4:	0007c703          	lbu	a4,0(a5)
 1a8:	fe071ae3          	bnez	a4,19c <main+0x98>
 1ac:	02010113          	addi	sp,sp,32
 1b0:	00008067          	ret
 1b4:	02f86a63          	bltu	a6,a5,1e8 <main+0xe4>
 1b8:	02fe6263          	bltu	t3,a5,1dc <main+0xd8>
 1bc:	fb278513          	addi	a0,a5,-78
 1c0:	0ff57513          	zext.b	a0,a0
 1c4:	faa36ee3          	bltu	t1,a0,180 <main+0x7c>
 1c8:	ff378793          	addi	a5,a5,-13
 1cc:	00f70023          	sb	a5,0(a4)
 1d0:	fb1ff06f          	j	180 <main+0x7c>
 1d4:	01e70023          	sb	t5,0(a4)
 1d8:	fa9ff06f          	j	180 <main+0x7c>
 1dc:	00d78793          	addi	a5,a5,13
 1e0:	00f70023          	sb	a5,0(a4)
 1e4:	f9dff06f          	j	180 <main+0x7c>
 1e8:	f9278513          	addi	a0,a5,-110
 1ec:	0ff57513          	zext.b	a0,a0
 1f0:	fca37ce3          	bgeu	t1,a0,1c8 <main+0xc4>
 1f4:	f8dff06f          	j	180 <main+0x7c>
